; Function Attrs: mustprogress nounwind uwtable
define hidden void @_ZN24JvmtiCachedClassFieldMap11clear_cacheEv() local_unnamed_addr #0 align 2 {
  %1 = load ptr, ptr @_ZN24JvmtiCachedClassFieldMap11_class_listE, align 8
  %.not = icmp eq ptr %1, null
  br i1 %.not, label %45, label %.preheader

.preheader:                                       ; preds = %0
  %2 = load i32, ptr %1, align 4
  %3 = icmp sgt i32 %2, 0
  br i1 %3, label %.lr.ph, label %._crit_edge

.lr.ph:                                           ; preds = %.preheader, %35
  %4 = phi ptr [ %36, %35 ], [ %1, %.preheader ]
  %indvars.iv = phi i64 [ %indvars.iv.next, %35 ], [ 0, %.preheader ]
  %5 = getelementptr inbounds i8, ptr %4, i64 8
  %6 = load ptr, ptr %5, align 8
  %7 = getelementptr inbounds ptr, ptr %6, i64 %indvars.iv
  %8 = load ptr, ptr %7, align 8
  %9 = getelementptr inbounds i8, ptr %8, i64 392
  %10 = load ptr, ptr %9, align 8
  store ptr null, ptr %9, align 8
  %11 = icmp eq ptr %10, null
  br i1 %11, label %35, label %12

12:                                               ; preds = %.lr.ph
  %13 = load ptr, ptr %10, align 8
  %.not.i = icmp eq ptr %13, null
  br i1 %.not.i, label %_ZN24JvmtiCachedClassFieldMapD2Ev.exit, label %14

14:                                               ; preds = %12
  %15 = load ptr, ptr %13, align 8
  %16 = load i32, ptr %15, align 4
  %17 = icmp sgt i32 %16, 0
  br i1 %17, label %.lr.ph.i.i, label %._crit_edge.i.i

.lr.ph.i.i:                                       ; preds = %14, %26
  %18 = phi i32 [ %27, %26 ], [ %16, %14 ]
  %19 = phi ptr [ %28, %26 ], [ %15, %14 ]
  %indvars.iv.i.i = phi i64 [ %indvars.iv.next.i.i, %26 ], [ 0, %14 ]
  %20 = getelementptr inbounds i8, ptr %19, i64 8
  %21 = load ptr, ptr %20, align 8
  %22 = getelementptr inbounds ptr, ptr %21, i64 %indvars.iv.i.i
  %23 = load ptr, ptr %22, align 8
  %24 = icmp eq ptr %23, null
  br i1 %24, label %26, label %25

25:                                               ; preds = %.lr.ph.i.i
  tail call void @_Z8FreeHeapPv(ptr noundef nonnull %23) #14
  %.pre.i.i = load ptr, ptr %13, align 8
  %.pre8.i.i = load i32, ptr %.pre.i.i, align 4
  br label %26

26:                                               ; preds = %25, %.lr.ph.i.i
  %27 = phi i32 [ %18, %.lr.ph.i.i ], [ %.pre8.i.i, %25 ]
  %28 = phi ptr [ %19, %.lr.ph.i.i ], [ %.pre.i.i, %25 ]
  %indvars.iv.next.i.i = add nuw nsw i64 %indvars.iv.i.i, 1
  %29 = sext i32 %27 to i64
  %30 = icmp slt i64 %indvars.iv.next.i.i, %29
  br i1 %30, label %.lr.ph.i.i, label %._crit_edge.i.i, !llvm.loop !9

._crit_edge.i.i:                                  ; preds = %26, %14
  %.lcssa.i.i = phi ptr [ %15, %14 ], [ %28, %26 ]
  %31 = getelementptr inbounds i8, ptr %.lcssa.i.i, i64 16
  %32 = load i64, ptr %31, align 8
  %33 = and i64 %32, 1
  %.not.i.i.i = icmp eq i64 %33, 0
  br i1 %.not.i.i.i, label %_ZN13ClassFieldMapD2Ev.exit.i, label %34

34:                                               ; preds = %._crit_edge.i.i
  store i32 0, ptr %.lcssa.i.i, align 4
  tail call void @_ZN26GrowableArrayWithAllocatorIP20ClassFieldDescriptor13GrowableArrayIS1_EE13shrink_to_fitEv(ptr noundef nonnull align 8 dereferenceable(16) %.lcssa.i.i)
  br label %_ZN13ClassFieldMapD2Ev.exit.i

_ZN13ClassFieldMapD2Ev.exit.i:                    ; preds = %34, %._crit_edge.i.i
  tail call void @_ZN6AnyObjdlEPv(ptr noundef nonnull %.lcssa.i.i) #14
  tail call void @_Z8FreeHeapPv(ptr noundef nonnull %13) #14
  br label %_ZN24JvmtiCachedClassFieldMapD2Ev.exit

_ZN24JvmtiCachedClassFieldMapD2Ev.exit:           ; preds = %12, %_ZN13ClassFieldMapD2Ev.exit.i
  tail call void @_Z8FreeHeapPv(ptr noundef nonnull %10) #14
  %.pre = load ptr, ptr @_ZN24JvmtiCachedClassFieldMap11_class_listE, align 8
  br label %35

35:                                               ; preds = %.lr.ph, %_ZN24JvmtiCachedClassFieldMapD2Ev.exit
  %36 = phi ptr [ %4, %.lr.ph ], [ %.pre, %_ZN24JvmtiCachedClassFieldMapD2Ev.exit ]
  %indvars.iv.next = add nuw nsw i64 %indvars.iv, 1
  %37 = load i32, ptr %36, align 4
  %38 = sext i32 %37 to i64
  %39 = icmp slt i64 %indvars.iv.next, %38
  br i1 %39, label %.lr.ph, label %._crit_edge, !llvm.loop !22

._crit_edge:                                      ; preds = %35, %.preheader
  %.lcssa8 = phi ptr [ %1, %.preheader ], [ %36, %35 ]
  %40 = getelementptr inbounds i8, ptr %.lcssa8, i64 16
  %41 = load i64, ptr %40, align 8
  %42 = and i64 %41, 1
  %.not.i7 = icmp eq i64 %42, 0
  br i1 %.not.i7, label %44, label %43

43:                                               ; preds = %._crit_edge
  store i32 0, ptr %.lcssa8, align 4
  tail call void @_ZN26GrowableArrayWithAllocatorIP13InstanceKlass13GrowableArrayIS1_EE13shrink_to_fitEv(ptr noundef nonnull align 8 dereferenceable(16) %.lcssa8)
  br label %44

44:                                               ; preds = %43, %._crit_edge
  tail call void @_ZN6AnyObjdlEPv(ptr noundef nonnull %.lcssa8) #14
  store ptr null, ptr @_ZN24JvmtiCachedClassFieldMap11_class_listE, align 8
  br label %45

45:                                               ; preds = %44, %0
  ret void
}